; Function Attrs: nounwind uwtable
define ptr @l_Lean_Elab_Command_NameGen_mkBaseNameWithSuffix_x27___lambda__1(ptr noundef %0, ptr noundef %1, ptr noundef %2, ptr noundef %3, ptr noundef %4, ptr noundef %5, ptr noundef %6, ptr noundef %7) local_unnamed_addr #1 {
  tail call void @lean_inc_heartbeat() #4
  %9 = tail call noalias ptr @mi_malloc_small(i64 noundef 32) #4
  %10 = icmp eq ptr %9, null
  br i1 %10, label %11, label %lean_alloc_closure.exit

11:                                               ; preds = %8
  tail call void @lean_internal_panic_out_of_memory() #5
  unreachable

lean_alloc_closure.exit:                          ; preds = %8
  %12 = getelementptr inbounds nuw i8, ptr %9, i64 4
  store i32 1, ptr %9, align 4, !tbaa !4
  store i32 -184549344, ptr %12, align 4
  %13 = getelementptr inbounds nuw i8, ptr %9, i64 8
  store ptr @l_Lean_Elab_mkUnusedBaseName, ptr %13, align 8, !tbaa !9
  %14 = getelementptr inbounds nuw i8, ptr %9, i64 16
  store i16 3, ptr %14, align 8, !tbaa !18
  %15 = getelementptr inbounds nuw i8, ptr %9, i64 18
  store i16 1, ptr %15, align 2, !tbaa !18
  %16 = getelementptr inbounds nuw i8, ptr %9, i64 24
  store ptr %0, ptr %16, align 8, !tbaa !9
  %17 = tail call ptr @l_Lean_Elab_liftMacroM___at_Lean_Elab_Command_NameGen_mkBaseNameWithSuffix_x27___spec__1(ptr noundef nonnull %9, ptr noundef %1, ptr noundef %2, ptr noundef %3, ptr noundef %4, ptr noundef %5, ptr noundef %6, ptr noundef %7)
  ret ptr %17
}